; Function Attrs: nounwind uwtable
define hidden range(i32 0, 6) i32 @X509_check_ca(ptr noundef %0) local_unnamed_addr #0 {
  %2 = getelementptr inbounds nuw i8, ptr %0, i64 64
  %3 = load i64, ptr %2, align 8, !tbaa !6
  %4 = and i64 %3, 256
  %.not = icmp eq i64 %4, 0
  br i1 %.not, label %5, label %6

5:                                                ; preds = %1
  tail call fastcc void @x509v3_cache_extensions(ptr noundef nonnull %0)
  %.pre = load i64, ptr %2, align 8, !tbaa !6
  br label %6

6:                                                ; preds = %5, %1
  %7 = phi i64 [ %.pre, %5 ], [ %3, %1 ]
  %8 = and i64 %7, 2
  %.not.i = icmp ne i64 %8, 0
  br i1 %.not.i, label %9, label %13

9:                                                ; preds = %6
  %10 = getelementptr inbounds nuw i8, ptr %0, i64 72
  %11 = load i64, ptr %10, align 8, !tbaa !52
  %12 = and i64 %11, 4
  %.not8.i = icmp eq i64 %12, 0
  br i1 %.not8.i, label %check_ca.exit, label %13

13:                                               ; preds = %9, %6
  %14 = and i64 %7, 1
  %.not9.i = icmp eq i64 %14, 0
  br i1 %.not9.i, label %18, label %15

15:                                               ; preds = %13
  %16 = trunc i64 %7 to i32
  %17 = lshr i32 %16, 4
  %..i = and i32 %17, 1
  br label %check_ca.exit

18:                                               ; preds = %13
  %19 = and i64 %7, 8256
  %20 = icmp eq i64 %19, 8256
  %brmerge.i = or i1 %20, %.not.i
  %.mux.i = select i1 %20, i32 3, i32 4
  br i1 %brmerge.i, label %check_ca.exit, label %21

21:                                               ; preds = %18
  %22 = and i64 %7, 8
  %.not11.i = icmp eq i64 %22, 0
  br i1 %.not11.i, label %27, label %23

23:                                               ; preds = %21
  %24 = getelementptr inbounds nuw i8, ptr %0, i64 88
  %25 = load i64, ptr %24, align 8, !tbaa !56
  %26 = and i64 %25, 7
  %.not12.i = icmp eq i64 %26, 0
  br i1 %.not12.i, label %27, label %check_ca.exit

27:                                               ; preds = %23, %21
  br label %check_ca.exit

check_ca.exit:                                    ; preds = %9, %15, %18, %23, %27
  %.0.i = phi i32 [ 0, %27 ], [ 0, %9 ], [ %..i, %15 ], [ %.mux.i, %18 ], [ 5, %23 ]
  ret i32 %.0.i
}